; ModuleID = '45/1805.c'
source_filename = "45/1805.c"
target datalayout = "e-m:e-p270:32:32-p271:32:32-p272:64:64-i64:64-f80:128-n8:16:32:64-S128"
target triple = "x86_64-pc-linux-gnu"

@.str = private unnamed_addr constant [6 x i8] c"%s %s\00", align 1
@.str.1 = private unnamed_addr constant [3 x i8] c"%d\00", align 1

; Function Attrs: noinline nounwind uwtable
define dso_local i32 @main() #0 {
  %1 = alloca i32, align 4
  %2 = alloca [50 x i8], align 16
  %3 = alloca [50 x i8], align 16
  %4 = alloca [50 x i8], align 16
  %5 = alloca i32, align 4
  %6 = alloca i32, align 4
  %7 = alloca i32, align 4
  %8 = alloca i32, align 4
  %9 = alloca i32, align 4
  %10 = alloca i32, align 4
  store i32 0, i32* %1, align 4
  store i32 0, i32* %9, align 4
  %11 = getelementptr inbounds [50 x i8], [50 x i8]* %2, i64 0, i64 0
  %12 = getelementptr inbounds [50 x i8], [50 x i8]* %3, i64 0, i64 0
  %13 = call i32 (i8*, ...) @__isoc99_scanf(i8* getelementptr inbounds ([6 x i8], [6 x i8]* @.str, i64 0, i64 0), i8* %11, i8* %12)
  %14 = getelementptr inbounds [50 x i8], [50 x i8]* %2, i64 0, i64 0
  %15 = call i64 @strlen(i8* %14) #3
  %16 = trunc i64 %15 to i32
  store i32 %16, i32* %10, align 4
  store i32 0, i32* %5, align 4
  br label %17

17:                                               ; preds = %77, %0
  %18 = load i32, i32* %5, align 4
  %19 = sext i32 %18 to i64
  %20 = getelementptr inbounds [50 x i8], [50 x i8]* %3, i64 0, i64 %19
  %21 = load i8, i8* %20, align 1
  %22 = sext i8 %21 to i32
  %23 = icmp ne i32 %22, 0
  br i1 %23, label %24, label %80

24:                                               ; preds = %17
  %25 = load i32, i32* %5, align 4
  %26 = sext i32 %25 to i64
  %27 = getelementptr inbounds [50 x i8], [50 x i8]* %3, i64 0, i64 %26
  %28 = load i8, i8* %27, align 1
  %29 = sext i8 %28 to i32
  %30 = getelementptr inbounds [50 x i8], [50 x i8]* %2, i64 0, i64 0
  %31 = load i8, i8* %30, align 16
  %32 = sext i8 %31 to i32
  %33 = icmp eq i32 %29, %32
  br i1 %33, label %34, label %61

34:                                               ; preds = %24
  %35 = getelementptr inbounds [50 x i8], [50 x i8]* %2, i64 0, i64 0
  %36 = load i8, i8* %35, align 16
  %37 = getelementptr inbounds [50 x i8], [50 x i8]* %4, i64 0, i64 0
  store i8 %36, i8* %37, align 16
  %38 = load i32, i32* %5, align 4
  %39 = add nsw i32 %38, 1
  store i32 %39, i32* %7, align 4
  store i32 1, i32* %6, align 4
  br label %40

40:                                               ; preds = %54, %34
  %41 = load i32, i32* %6, align 4
  %42 = load i32, i32* %10, align 4
  %43 = icmp slt i32 %41, %42
  br i1 %43, label %44, label %57

44:                                               ; preds = %40
  %45 = load i32, i32* %7, align 4
  %46 = sext i32 %45 to i64
  %47 = getelementptr inbounds [50 x i8], [50 x i8]* %3, i64 0, i64 %46
  %48 = load i8, i8* %47, align 1
  %49 = load i32, i32* %6, align 4
  %50 = sext i32 %49 to i64
  %51 = getelementptr inbounds [50 x i8], [50 x i8]* %4, i64 0, i64 %50
  store i8 %48, i8* %51, align 1
  %52 = load i32, i32* %7, align 4
  %53 = add nsw i32 %52, 1
  store i32 %53, i32* %7, align 4
  br label %54

54:                                               ; preds = %44
  %55 = load i32, i32* %6, align 4
  %56 = add nsw i32 %55, 1
  store i32 %56, i32* %6, align 4
  br label %40

57:                                               ; preds = %40
  %58 = load i32, i32* %6, align 4
  %59 = sext i32 %58 to i64
  %60 = getelementptr inbounds [50 x i8], [50 x i8]* %4, i64 0, i64 %59
  store i8 0, i8* %60, align 1
  br label %61

61:                                               ; preds = %57, %24
  %62 = getelementptr inbounds [50 x i8], [50 x i8]* %2, i64 0, i64 0
  %63 = getelementptr inbounds [50 x i8], [50 x i8]* %4, i64 0, i64 0
  %64 = call i32 @strcmp(i8* %62, i8* %63) #3
  store i32 %64, i32* %8, align 4
  %65 = load i32, i32* %8, align 4
  %66 = icmp eq i32 %65, 0
  br i1 %66, label %67, label %70

67:                                               ; preds = %61
  %68 = load i32, i32* %9, align 4
  %69 = add nsw i32 %68, 1
  store i32 %69, i32* %9, align 4
  br label %70

70:                                               ; preds = %67, %61
  %71 = load i32, i32* %9, align 4
  %72 = icmp eq i32 %71, 1
  br i1 %72, label %73, label %76

73:                                               ; preds = %70
  %74 = load i32, i32* %5, align 4
  %75 = call i32 (i8*, ...) @printf(i8* getelementptr inbounds ([3 x i8], [3 x i8]* @.str.1, i64 0, i64 0), i32 %74)
  br label %76

76:                                               ; preds = %73, %70
  br label %77

77:                                               ; preds = %76
  %78 = load i32, i32* %5, align 4
  %79 = add nsw i32 %78, 1
  store i32 %79, i32* %5, align 4
  br label %17

80:                                               ; preds = %17
  ret i32 0
}

declare dso_local i32 @__isoc99_scanf(i8*, ...) #1

; Function Attrs: nounwind readonly
declare dso_local i64 @strlen(i8*) #2

; Function Attrs: nounwind readonly
declare dso_local i32 @strcmp(i8*, i8*) #2

declare dso_local i32 @printf(i8*, ...) #1


!llvm.module.flags = !{!0}
!llvm.ident = !{!1}

!0 = !{i32 1, !"wchar_size", i32 4}
!1 = !{!"clang version 10.0.0-4ubuntu1 "}
